target datalayout = "e-m:e-p270:32:32-p271:32:32-p272:64:64-i64:64-i128:128-f80:128-n8:16:32:64-S128"
target triple = "x86_64-pc-linux-gnu"

%struct.AVIOInterruptCB = type { ptr, ptr }
%struct.URLContext = type { ptr, ptr, ptr, ptr, i32, i32, i32, i32, %struct.AVIOInterruptCB, i64, ptr, ptr, i32 }
%struct.AsyncContext = type { ptr, ptr, i32, i64, i32, i32, i64, i32, i32, i32, i64, i64, %struct.RingBuffer, %union.pthread_cond_t, %union.pthread_cond_t, %union.pthread_mutex_t, i64, i32, %struct.AVIOInterruptCB }
%struct.RingBuffer = type { ptr, i32, i32 }
%union.pthread_cond_t = type { %struct.__pthread_cond_s }
%struct.__pthread_cond_s = type { %union.__atomic_wide_counter, %union.__atomic_wide_counter, [2 x i32], [2 x i32], i32, i32, [2 x i32] }
%union.__atomic_wide_counter = type { i64 }
%union.pthread_mutex_t = type { %struct.__pthread_mutex_s }
%struct.__pthread_mutex_s = type { i32, i32, i32, i32, i32, i16, i16, %struct.__pthread_internal_list }
%struct.__pthread_internal_list = type { ptr, ptr }

@.str = private unnamed_addr constant [6 x i8] c"async\00", align 1

; Function Attrs: nounwind uwtable
define internal i32 @ring_write(ptr noundef %0, ptr noundef %1, i64 noundef %2) #0 {
  %4 = alloca i32, align 4
  %5 = alloca ptr, align 8
  %6 = alloca ptr, align 8
  %7 = alloca i64, align 8
  %8 = alloca i32, align 4
  %9 = alloca i32, align 4
  store ptr %0, ptr %5, align 8, !tbaa !37
  store ptr %1, ptr %6, align 8, !tbaa !4
  store i64 %2, ptr %7, align 8, !tbaa !36
  call void @llvm.lifetime.start.p0(i64 4, ptr %8) #7
  %10 = load ptr, ptr %5, align 8, !tbaa !37
  %11 = getelementptr inbounds nuw %struct.RingBuffer, ptr %10, i32 0, i32 0
  %12 = load ptr, ptr %11, align 8, !tbaa !47
  %13 = load ptr, ptr %6, align 8, !tbaa !4
  %14 = call i32 @av_fifo_write_from_cb(ptr noundef %12, ptr noundef @wrapped_url_read, ptr noundef %13, ptr noundef %7)
  store i32 %14, ptr %8, align 4, !tbaa !11
  %15 = load i32, ptr %8, align 4, !tbaa !11
  %16 = icmp slt i32 %15, 0
  br i1 %16, label %17, label %19

17:                                               ; preds = %3
  %18 = load i32, ptr %8, align 4, !tbaa !11
  store i32 %18, ptr %4, align 4
  store i32 1, ptr %9, align 4
  br label %22

19:                                               ; preds = %3
  %20 = load i64, ptr %7, align 8, !tbaa !36
  %21 = trunc i64 %20 to i32
  store i32 %21, ptr %4, align 4
  store i32 1, ptr %9, align 4
  br label %22

22:                                               ; preds = %19, %17
  call void @llvm.lifetime.end.p0(i64 4, ptr %8) #7
  %23 = load i32, ptr %4, align 4
  ret i32 %23
}

; Function Attrs: nounwind uwtable
define internal i32 @ring_space(ptr noundef %0) #0 {
  %2 = alloca ptr, align 8
  store ptr %0, ptr %2, align 8, !tbaa !37
  %3 = load ptr, ptr %2, align 8, !tbaa !37
  %4 = getelementptr inbounds nuw %struct.RingBuffer, ptr %3, i32 0, i32 0
  %5 = load ptr, ptr %4, align 8, !tbaa !47
  %6 = call i64 @av_fifo_can_write(ptr noundef %5)
  %7 = trunc i64 %6 to i32
  ret i32 %7
}

; Function Attrs: nounwind uwtable
define internal void @ring_reset(ptr noundef %0) #0 {
  %2 = alloca ptr, align 8
  store ptr %0, ptr %2, align 8, !tbaa !37
  %3 = load ptr, ptr %2, align 8, !tbaa !37
  %4 = getelementptr inbounds nuw %struct.RingBuffer, ptr %3, i32 0, i32 0
  %5 = load ptr, ptr %4, align 8, !tbaa !47
  call void @av_fifo_reset2(ptr noundef %5)
  %6 = load ptr, ptr %2, align 8, !tbaa !37
  %7 = getelementptr inbounds nuw %struct.RingBuffer, ptr %6, i32 0, i32 2
  store i32 0, ptr %7, align 4, !tbaa !52
  ret void
}

; Function Attrs: inlinehint nounwind uwtable
define internal i64 @ffurl_seek(ptr noundef %0, i64 noundef %1, i32 noundef %2) #4 {
  %4 = alloca ptr, align 8
  %5 = alloca i64, align 8
  %6 = alloca i32, align 4
  store ptr %0, ptr %4, align 8, !tbaa !4
  store i64 %1, ptr %5, align 8, !tbaa !36
  store i32 %2, ptr %6, align 4, !tbaa !11
  %7 = load ptr, ptr %4, align 8, !tbaa !4
  %8 = load i64, ptr %5, align 8, !tbaa !36
  %9 = load i32, ptr %6, align 4, !tbaa !11
  %10 = call i64 @ffurl_seek2(ptr noundef %7, i64 noundef %8, i32 noundef %9)
  ret i64 %10
}

; Function Attrs: nounwind uwtable
define internal i32 @async_check_interrupt(ptr noundef %0) #0 {
  %2 = alloca i32, align 4
  %3 = alloca ptr, align 8
  %4 = alloca ptr, align 8
  %5 = alloca ptr, align 8
  %6 = alloca i32, align 4
  store ptr %0, ptr %3, align 8, !tbaa !27
  call void @llvm.lifetime.start.p0(i64 8, ptr %4) #7
  %7 = load ptr, ptr %3, align 8, !tbaa !27
  store ptr %7, ptr %4, align 8, !tbaa !4
  call void @llvm.lifetime.start.p0(i64 8, ptr %5) #7
  %8 = load ptr, ptr %4, align 8, !tbaa !4
  %9 = getelementptr inbounds nuw %struct.URLContext, ptr %8, i32 0, i32 2
  %10 = load ptr, ptr %9, align 8, !tbaa !16
  store ptr %10, ptr %5, align 8, !tbaa !22
  %11 = load ptr, ptr %5, align 8, !tbaa !22
  %12 = getelementptr inbounds nuw %struct.AsyncContext, ptr %11, i32 0, i32 17
  %13 = load i32, ptr %12, align 8, !tbaa !45
  %14 = icmp ne i32 %13, 0
  br i1 %14, label %15, label %16

15:                                               ; preds = %1
  store i32 1, ptr %2, align 4
  store i32 1, ptr %6, align 4
  br label %28

16:                                               ; preds = %1
  %17 = load ptr, ptr %5, align 8, !tbaa !22
  %18 = getelementptr inbounds nuw %struct.AsyncContext, ptr %17, i32 0, i32 18
  %19 = call i32 @ff_check_interrupt(ptr noundef %18)
  %20 = icmp ne i32 %19, 0
  br i1 %20, label %21, label %24

21:                                               ; preds = %16
  %22 = load ptr, ptr %5, align 8, !tbaa !22
  %23 = getelementptr inbounds nuw %struct.AsyncContext, ptr %22, i32 0, i32 17
  store i32 1, ptr %23, align 8, !tbaa !45
  br label %24

24:                                               ; preds = %21, %16
  %25 = load ptr, ptr %5, align 8, !tbaa !22
  %26 = getelementptr inbounds nuw %struct.AsyncContext, ptr %25, i32 0, i32 17
  %27 = load i32, ptr %26, align 8, !tbaa !45
  store i32 %27, ptr %2, align 4
  store i32 1, ptr %6, align 4
  br label %28

28:                                               ; preds = %24, %15
  call void @llvm.lifetime.end.p0(i64 8, ptr %5) #7
  call void @llvm.lifetime.end.p0(i64 8, ptr %4) #7
  %29 = load i32, ptr %2, align 4
  ret i32 %29
}

; Function Attrs: inlinehint nounwind uwtable
define internal i32 @ff_thread_setname(ptr noundef %0) #4 {
  %2 = alloca ptr, align 8
  %3 = alloca i32, align 4
  store ptr %0, ptr %2, align 8, !tbaa !9
  call void @llvm.lifetime.start.p0(i64 4, ptr %3) #7
  store i32 0, ptr %3, align 4, !tbaa !11
  %4 = load ptr, ptr %2, align 8, !tbaa !9
  %5 = call i32 (i32, ...) @prctl(i32 noundef 15, ptr noundef %4) #7
  %6 = sub nsw i32 0, %5
  store i32 %6, ptr %3, align 4, !tbaa !11
  %7 = load i32, ptr %3, align 4, !tbaa !11
  call void @llvm.lifetime.end.p0(i64 4, ptr %3) #7
  ret i32 %7
}

; Function Attrs: nounwind uwtable
define internal ptr @async_buffer_task(ptr noundef %0) #0 {
  %2 = alloca ptr, align 8
  %3 = alloca ptr, align 8
  %4 = alloca ptr, align 8
  %5 = alloca ptr, align 8
  %6 = alloca i32, align 4
  %7 = alloca i64, align 8
  %8 = alloca i32, align 4
  %9 = alloca i32, align 4
  %10 = alloca i32, align 4
  store ptr %0, ptr %2, align 8, !tbaa !27
  call void @llvm.lifetime.start.p0(i64 8, ptr %3) #7
  %11 = load ptr, ptr %2, align 8, !tbaa !27
  store ptr %11, ptr %3, align 8, !tbaa !4
  call void @llvm.lifetime.start.p0(i64 8, ptr %4) #7
  %12 = load ptr, ptr %3, align 8, !tbaa !4
  %13 = getelementptr inbounds nuw %struct.URLContext, ptr %12, i32 0, i32 2
  %14 = load ptr, ptr %13, align 8, !tbaa !16
  store ptr %14, ptr %4, align 8, !tbaa !22
  call void @llvm.lifetime.start.p0(i64 8, ptr %5) #7
  %15 = load ptr, ptr %4, align 8, !tbaa !22
  %16 = getelementptr inbounds nuw %struct.AsyncContext, ptr %15, i32 0, i32 12
  store ptr %16, ptr %5, align 8, !tbaa !37
  call void @llvm.lifetime.start.p0(i64 4, ptr %6) #7
  store i32 0, ptr %6, align 4, !tbaa !11
  call void @llvm.lifetime.start.p0(i64 8, ptr %7) #7
  %17 = call i32 @ff_thread_setname(ptr noundef @.str)
  br label %18

18:                                               ; preds = %141, %139, %1
  br label %19

19:                                               ; preds = %18
  call void @llvm.lifetime.start.p0(i64 4, ptr %8) #7
  call void @llvm.lifetime.start.p0(i64 4, ptr %9) #7
  %20 = load ptr, ptr %4, align 8, !tbaa !22
  %21 = getelementptr inbounds nuw %struct.AsyncContext, ptr %20, i32 0, i32 15
  %22 = call i32 @pthread_mutex_lock(ptr noundef %21) #7
  %23 = load ptr, ptr %3, align 8, !tbaa !4
  %24 = call i32 @async_check_interrupt(ptr noundef %23)
  %25 = icmp ne i32 %24, 0
  br i1 %25, label %26, label %37

26:                                               ; preds = %19
  %27 = load ptr, ptr %4, align 8, !tbaa !22
  %28 = getelementptr inbounds nuw %struct.AsyncContext, ptr %27, i32 0, i32 9
  store i32 1, ptr %28, align 8, !tbaa !49
  %29 = load ptr, ptr %4, align 8, !tbaa !22
  %30 = getelementptr inbounds nuw %struct.AsyncContext, ptr %29, i32 0, i32 8
  store i32 -1414092869, ptr %30, align 4, !tbaa !50
  %31 = load ptr, ptr %4, align 8, !tbaa !22
  %32 = getelementptr inbounds nuw %struct.AsyncContext, ptr %31, i32 0, i32 13
  %33 = call i32 @pthread_cond_signal(ptr noundef %32) #7
  %34 = load ptr, ptr %4, align 8, !tbaa !22
  %35 = getelementptr inbounds nuw %struct.AsyncContext, ptr %34, i32 0, i32 15
  %36 = call i32 @pthread_mutex_unlock(ptr noundef %35) #7
  store i32 3, ptr %10, align 4
  br label %139

37:                                               ; preds = %19
  %38 = load ptr, ptr %4, align 8, !tbaa !22
  %39 = getelementptr inbounds nuw %struct.AsyncContext, ptr %38, i32 0, i32 2
  %40 = load i32, ptr %39, align 8, !tbaa !40
  %41 = icmp ne i32 %40, 0
  br i1 %41, label %42, label %75

42:                                               ; preds = %37
  %43 = load ptr, ptr %4, align 8, !tbaa !22
  %44 = getelementptr inbounds nuw %struct.AsyncContext, ptr %43, i32 0, i32 1
  %45 = load ptr, ptr %44, align 8, !tbaa !30
  %46 = load ptr, ptr %4, align 8, !tbaa !22
  %47 = getelementptr inbounds nuw %struct.AsyncContext, ptr %46, i32 0, i32 3
  %48 = load i64, ptr %47, align 8, !tbaa !41
  %49 = load ptr, ptr %4, align 8, !tbaa !22
  %50 = getelementptr inbounds nuw %struct.AsyncContext, ptr %49, i32 0, i32 4
  %51 = load i32, ptr %50, align 8, !tbaa !42
  %52 = call i64 @ffurl_seek(ptr noundef %45, i64 noundef %48, i32 noundef %51)
  store i64 %52, ptr %7, align 8, !tbaa !36
  %53 = load i64, ptr %7, align 8, !tbaa !36
  %54 = icmp sge i64 %53, 0
  br i1 %54, label %55, label %61

55:                                               ; preds = %42
  %56 = load ptr, ptr %4, align 8, !tbaa !22
  %57 = getelementptr inbounds nuw %struct.AsyncContext, ptr %56, i32 0, i32 9
  store i32 0, ptr %57, align 8, !tbaa !49
  %58 = load ptr, ptr %4, align 8, !tbaa !22
  %59 = getelementptr inbounds nuw %struct.AsyncContext, ptr %58, i32 0, i32 8
  store i32 0, ptr %59, align 4, !tbaa !50
  %60 = load ptr, ptr %5, align 8, !tbaa !37
  call void @ring_reset(ptr noundef %60)
  br label %61

61:                                               ; preds = %55, %42
  %62 = load ptr, ptr %4, align 8, !tbaa !22
  %63 = getelementptr inbounds nuw %struct.AsyncContext, ptr %62, i32 0, i32 5
  store i32 1, ptr %63, align 4, !tbaa !43
  %64 = load i64, ptr %7, align 8, !tbaa !36
  %65 = load ptr, ptr %4, align 8, !tbaa !22
  %66 = getelementptr inbounds nuw %struct.AsyncContext, ptr %65, i32 0, i32 6
  store i64 %64, ptr %66, align 8, !tbaa !44
  %67 = load ptr, ptr %4, align 8, !tbaa !22
  %68 = getelementptr inbounds nuw %struct.AsyncContext, ptr %67, i32 0, i32 2
  store i32 0, ptr %68, align 8, !tbaa !40
  %69 = load ptr, ptr %4, align 8, !tbaa !22
  %70 = getelementptr inbounds nuw %struct.AsyncContext, ptr %69, i32 0, i32 13
  %71 = call i32 @pthread_cond_signal(ptr noundef %70) #7
  %72 = load ptr, ptr %4, align 8, !tbaa !22
  %73 = getelementptr inbounds nuw %struct.AsyncContext, ptr %72, i32 0, i32 15
  %74 = call i32 @pthread_mutex_unlock(ptr noundef %73) #7
  store i32 2, ptr %10, align 4
  br label %139

75:                                               ; preds = %37
  %76 = load ptr, ptr %5, align 8, !tbaa !37
  %77 = call i32 @ring_space(ptr noundef %76)
  store i32 %77, ptr %8, align 4, !tbaa !11
  %78 = load ptr, ptr %4, align 8, !tbaa !22
  %79 = getelementptr inbounds nuw %struct.AsyncContext, ptr %78, i32 0, i32 9
  %80 = load i32, ptr %79, align 8, !tbaa !49
  %81 = icmp ne i32 %80, 0
  br i1 %81, label %85, label %82

82:                                               ; preds = %75
  %83 = load i32, ptr %8, align 4, !tbaa !11
  %84 = icmp sle i32 %83, 0
  br i1 %84, label %85, label %97

85:                                               ; preds = %82, %75
  %86 = load ptr, ptr %4, align 8, !tbaa !22
  %87 = getelementptr inbounds nuw %struct.AsyncContext, ptr %86, i32 0, i32 13
  %88 = call i32 @pthread_cond_signal(ptr noundef %87) #7
  %89 = load ptr, ptr %4, align 8, !tbaa !22
  %90 = getelementptr inbounds nuw %struct.AsyncContext, ptr %89, i32 0, i32 14
  %91 = load ptr, ptr %4, align 8, !tbaa !22
  %92 = getelementptr inbounds nuw %struct.AsyncContext, ptr %91, i32 0, i32 15
  %93 = call i32 @pthread_cond_wait(ptr noundef %90, ptr noundef %92)
  %94 = load ptr, ptr %4, align 8, !tbaa !22
  %95 = getelementptr inbounds nuw %struct.AsyncContext, ptr %94, i32 0, i32 15
  %96 = call i32 @pthread_mutex_unlock(ptr noundef %95) #7
  store i32 2, ptr %10, align 4
  br label %139

97:                                               ; preds = %82
  %98 = load ptr, ptr %4, align 8, !tbaa !22
  %99 = getelementptr inbounds nuw %struct.AsyncContext, ptr %98, i32 0, i32 15
  %100 = call i32 @pthread_mutex_unlock(ptr noundef %99) #7
  %101 = load i32, ptr %8, align 4, !tbaa !11
  %102 = icmp sgt i32 4096, %101
  br i1 %102, label %103, label %105

103:                                              ; preds = %97
  %104 = load i32, ptr %8, align 4, !tbaa !11
  br label %106

105:                                              ; preds = %97
  br label %106

106:                                              ; preds = %105, %103
  %107 = phi i32 [ %104, %103 ], [ 4096, %105 ]
  store i32 %107, ptr %9, align 4, !tbaa !11
  %108 = load ptr, ptr %5, align 8, !tbaa !37
  %109 = load ptr, ptr %3, align 8, !tbaa !4
  %110 = load i32, ptr %9, align 4, !tbaa !11
  %111 = sext i32 %110 to i64
  %112 = call i32 @ring_write(ptr noundef %108, ptr noundef %109, i64 noundef %111)
  store i32 %112, ptr %6, align 4, !tbaa !11
  %113 = load ptr, ptr %4, align 8, !tbaa !22
  %114 = getelementptr inbounds nuw %struct.AsyncContext, ptr %113, i32 0, i32 15
  %115 = call i32 @pthread_mutex_lock(ptr noundef %114) #7
  %116 = load i32, ptr %6, align 4, !tbaa !11
  %117 = icmp sle i32 %116, 0
  br i1 %117, label %118, label %132

118:                                              ; preds = %106
  %119 = load ptr, ptr %4, align 8, !tbaa !22
  %120 = getelementptr inbounds nuw %struct.AsyncContext, ptr %119, i32 0, i32 9
  store i32 1, ptr %120, align 8, !tbaa !49
  %121 = load ptr, ptr %4, align 8, !tbaa !22
  %122 = getelementptr inbounds nuw %struct.AsyncContext, ptr %121, i32 0, i32 7
  %123 = load i32, ptr %122, align 8, !tbaa !51
  %124 = icmp slt i32 %123, 0
  br i1 %124, label %125, label %131

125:                                              ; preds = %118
  %126 = load ptr, ptr %4, align 8, !tbaa !22
  %127 = getelementptr inbounds nuw %struct.AsyncContext, ptr %126, i32 0, i32 7
  %128 = load i32, ptr %127, align 8, !tbaa !51
  %129 = load ptr, ptr %4, align 8, !tbaa !22
  %130 = getelementptr inbounds nuw %struct.AsyncContext, ptr %129, i32 0, i32 8
  store i32 %128, ptr %130, align 4, !tbaa !50
  br label %131

131:                                              ; preds = %125, %118
  br label %132

132:                                              ; preds = %131, %106
  %133 = load ptr, ptr %4, align 8, !tbaa !22
  %134 = getelementptr inbounds nuw %struct.AsyncContext, ptr %133, i32 0, i32 13
  %135 = call i32 @pthread_cond_signal(ptr noundef %134) #7
  %136 = load ptr, ptr %4, align 8, !tbaa !22
  %137 = getelementptr inbounds nuw %struct.AsyncContext, ptr %136, i32 0, i32 15
  %138 = call i32 @pthread_mutex_unlock(ptr noundef %137) #7
  store i32 0, ptr %10, align 4
  br label %139

139:                                              ; preds = %132, %85, %61, %26
  call void @llvm.lifetime.end.p0(i64 4, ptr %9) #7
  call void @llvm.lifetime.end.p0(i64 4, ptr %8) #7
  %140 = load i32, ptr %10, align 4
  switch i32 %140, label %143 [
    i32 0, label %141
    i32 3, label %142
    i32 2, label %18
  ]

141:                                              ; preds = %139
  br label %18

142:                                              ; preds = %139
  store i32 1, ptr %10, align 4
  call void @llvm.lifetime.end.p0(i64 8, ptr %7) #7
  call void @llvm.lifetime.end.p0(i64 4, ptr %6) #7
  call void @llvm.lifetime.end.p0(i64 8, ptr %5) #7
  call void @llvm.lifetime.end.p0(i64 8, ptr %4) #7
  call void @llvm.lifetime.end.p0(i64 8, ptr %3) #7
  ret ptr null

143:                                              ; preds = %139
  unreachable
}