; Function Attrs: nounwind uwtable
define internal noalias noundef ptr @async_buffer_task(ptr noundef %0) #0 {
  %2 = alloca i64, align 8
  %3 = getelementptr inbounds nuw i8, ptr %0, i64 16
  %4 = load ptr, ptr %3, align 8, !tbaa !9
  %5 = getelementptr inbounds nuw i8, ptr %4, i64 80
  %6 = tail call i32 (i32, ...) @prctl(i32 noundef 15, ptr noundef nonnull @.str) #7
  %7 = getelementptr inbounds nuw i8, ptr %4, i64 192
  %8 = tail call i32 @pthread_mutex_lock(ptr noundef nonnull %7) #7
  %9 = load ptr, ptr %3, align 8, !tbaa !9
  %10 = getelementptr inbounds nuw i8, ptr %9, i64 240
  %11 = load i32, ptr %10, align 8, !tbaa !35
  %.not.i58 = icmp eq i32 %11, 0
  br i1 %.not.i58, label %.lr.ph, label %async_check_interrupt.exit.thread

.lr.ph:                                           ; preds = %1
  %12 = getelementptr inbounds nuw i8, ptr %4, i64 16
  %13 = getelementptr inbounds nuw i8, ptr %4, i64 8
  %14 = getelementptr inbounds nuw i8, ptr %4, i64 24
  %15 = getelementptr inbounds nuw i8, ptr %4, i64 32
  %16 = getelementptr inbounds nuw i8, ptr %4, i64 56
  %17 = getelementptr inbounds nuw i8, ptr %4, i64 52
  %18 = getelementptr inbounds nuw i8, ptr %4, i64 92
  %19 = getelementptr inbounds nuw i8, ptr %4, i64 36
  %20 = getelementptr inbounds nuw i8, ptr %4, i64 40
  %21 = getelementptr inbounds nuw i8, ptr %4, i64 96
  %22 = getelementptr inbounds nuw i8, ptr %4, i64 48
  %23 = getelementptr inbounds nuw i8, ptr %4, i64 144
  br label %24

24:                                               ; preds = %.lr.ph, %68
  %25 = phi ptr [ %10, %.lr.ph ], [ %72, %68 ]
  %26 = phi ptr [ %9, %.lr.ph ], [ %71, %68 ]
  %27 = getelementptr inbounds nuw i8, ptr %26, i64 248
  %28 = call i32 @ff_check_interrupt(ptr noundef nonnull %27) #7
  %.not6.i = icmp eq i32 %28, 0
  br i1 %.not6.i, label %async_check_interrupt.exit, label %29

29:                                               ; preds = %24
  store i32 1, ptr %25, align 8, !tbaa !35
  br label %async_check_interrupt.exit.thread

async_check_interrupt.exit:                       ; preds = %24
  %.pre.i = load i32, ptr %25, align 8, !tbaa !35
  %.not = icmp eq i32 %.pre.i, 0
  br i1 %.not, label %30, label %async_check_interrupt.exit.thread

30:                                               ; preds = %async_check_interrupt.exit
  %31 = load i32, ptr %12, align 8, !tbaa !33
  %.not47 = icmp eq i32 %31, 0
  br i1 %.not47, label %42, label %32

32:                                               ; preds = %30
  %33 = load ptr, ptr %13, align 8, !tbaa !26
  %34 = load i64, ptr %14, align 8, !tbaa !34
  %35 = load i32, ptr %15, align 8, !tbaa !39
  %36 = call i64 @ffurl_seek2(ptr noundef %33, i64 noundef %34, i32 noundef %35) #7
  %37 = icmp sgt i64 %36, -1
  br i1 %37, label %38, label %40

38:                                               ; preds = %32
  store i32 0, ptr %16, align 8, !tbaa !40
  store i32 0, ptr %17, align 4, !tbaa !41
  %39 = load ptr, ptr %5, align 8, !tbaa !18
  call void @av_fifo_reset2(ptr noundef %39) #7
  store i32 0, ptr %18, align 4, !tbaa !32
  br label %40

40:                                               ; preds = %38, %32
  store i32 1, ptr %19, align 4, !tbaa !36
  store i64 %36, ptr %20, align 8, !tbaa !37
  store i32 0, ptr %12, align 8, !tbaa !33
  %41 = call i32 @pthread_cond_signal(ptr noundef nonnull %21) #7
  br label %68

42:                                               ; preds = %30
  %.val = load ptr, ptr %5, align 8, !tbaa !18
  %43 = call i64 @av_fifo_can_write(ptr noundef %.val) #7
  %44 = trunc i64 %43 to i32
  %45 = load i32, ptr %16, align 8, !tbaa !40
  %46 = icmp ne i32 %45, 0
  %47 = icmp slt i32 %44, 1
  %or.cond = select i1 %46, i1 true, i1 %47
  br i1 %or.cond, label %48, label %51

48:                                               ; preds = %42
  %49 = call i32 @pthread_cond_signal(ptr noundef nonnull %21) #7
  %50 = call i32 @pthread_cond_wait(ptr noundef nonnull %23, ptr noundef nonnull %7) #7
  br label %68

51:                                               ; preds = %42
  %52 = call i32 @pthread_mutex_unlock(ptr noundef nonnull %7) #7
  %53 = call i32 @llvm.umin.i32(i32 %44, i32 4096)
  %54 = zext nneg i32 %53 to i64
  %.val48 = load ptr, ptr %5, align 8, !tbaa !18
  call void @llvm.lifetime.start.p0(i64 8, ptr nonnull %2)
  store i64 %54, ptr %2, align 8, !tbaa !42
  %55 = call i32 @av_fifo_write_from_cb(ptr noundef %.val48, ptr noundef nonnull @wrapped_url_read, ptr noundef nonnull %0, ptr noundef nonnull %2) #7
  %56 = icmp slt i32 %55, 0
  %57 = load i64, ptr %2, align 8
  %58 = trunc i64 %57 to i32
  call void @llvm.lifetime.end.p0(i64 8, ptr nonnull %2)
  %59 = call i32 @pthread_mutex_lock(ptr noundef nonnull %7) #7
  %60 = icmp slt i32 %58, 1
  %61 = select i1 %56, i1 true, i1 %60
  br i1 %61, label %62, label %66

62:                                               ; preds = %51
  store i32 1, ptr %16, align 8, !tbaa !40
  %63 = load i32, ptr %22, align 8, !tbaa !43
  %64 = icmp slt i32 %63, 0
  br i1 %64, label %65, label %66

65:                                               ; preds = %62
  store i32 %63, ptr %17, align 4, !tbaa !41
  br label %66

66:                                               ; preds = %62, %65, %51
  %67 = call i32 @pthread_cond_signal(ptr noundef nonnull %21) #7
  br label %68

68:                                               ; preds = %66, %48, %40
  %69 = call i32 @pthread_mutex_unlock(ptr noundef nonnull %7) #7
  %70 = call i32 @pthread_mutex_lock(ptr noundef nonnull %7) #7
  %71 = load ptr, ptr %3, align 8, !tbaa !9
  %72 = getelementptr inbounds nuw i8, ptr %71, i64 240
  %73 = load i32, ptr %72, align 8, !tbaa !35
  %.not.i = icmp eq i32 %73, 0
  br i1 %.not.i, label %24, label %async_check_interrupt.exit.thread

async_check_interrupt.exit.thread:                ; preds = %async_check_interrupt.exit, %68, %1, %29
  %74 = getelementptr inbounds nuw i8, ptr %4, i64 56
  store i32 1, ptr %74, align 8, !tbaa !40
  %75 = getelementptr inbounds nuw i8, ptr %4, i64 52
  store i32 -1414092869, ptr %75, align 4, !tbaa !41
  %76 = getelementptr inbounds nuw i8, ptr %4, i64 96
  %77 = call i32 @pthread_cond_signal(ptr noundef nonnull %76) #7
  %78 = call i32 @pthread_mutex_unlock(ptr noundef nonnull %7) #7
  ret ptr null
}